target datalayout = "e-m:e-p270:32:32-p271:32:32-p272:64:64-i64:64-i128:128-f80:128-n8:16:32:64-S128"
target triple = "x86_64-pc-linux-gnu"

%"struct.ZXing::PointT.0" = type { double, double }

; Function Attrs: mustprogress nounwind uwtable
define linkonce_odr noundef double @_ZN5ZXing3dotIddEEDTmldtfp_1xdtfp0_1xERKNS_6PointTIT_EERKNS2_IT0_EE(ptr noundef nonnull align 8 dereferenceable(16) %0, ptr noundef nonnull align 8 dereferenceable(16) %1) #1 comdat {
  %3 = alloca ptr, align 8
  %4 = alloca ptr, align 8
  store ptr %0, ptr %3, align 8
  store ptr %1, ptr %4, align 8
  %5 = load ptr, ptr %3, align 8
  %6 = getelementptr inbounds %"struct.ZXing::PointT.0", ptr %5, i32 0, i32 0
  %7 = load double, ptr %6, align 8
  %8 = load ptr, ptr %4, align 8
  %9 = getelementptr inbounds %"struct.ZXing::PointT.0", ptr %8, i32 0, i32 0
  %10 = load double, ptr %9, align 8
  %11 = load ptr, ptr %3, align 8
  %12 = getelementptr inbounds %"struct.ZXing::PointT.0", ptr %11, i32 0, i32 1
  %13 = load double, ptr %12, align 8
  %14 = load ptr, ptr %4, align 8
  %15 = getelementptr inbounds %"struct.ZXing::PointT.0", ptr %14, i32 0, i32 1
  %16 = load double, ptr %15, align 8
  %17 = fmul double %13, %16
  %18 = call double @llvm.fmuladd.f64(double %7, double %10, double %17)
  ret double %18
}

; Function Attrs: mustprogress uwtable
define linkonce_odr { double, double } @_ZN5ZXingdvIddEENS_6PointTIT_EERKS3_T0_(ptr noundef nonnull align 8 dereferenceable(16) %0, double noundef %1) #0 comdat {
  %3 = alloca %"struct.ZXing::PointT.0", align 8
  %4 = alloca ptr, align 8
  %5 = alloca double, align 8
  store ptr %0, ptr %4, align 8
  store double %1, ptr %5, align 8
  %6 = load ptr, ptr %4, align 8
  %7 = getelementptr inbounds %"struct.ZXing::PointT.0", ptr %6, i32 0, i32 0
  %8 = load double, ptr %7, align 8
  %9 = load double, ptr %5, align 8
  %10 = fdiv double %8, %9
  %11 = load ptr, ptr %4, align 8
  %12 = getelementptr inbounds %"struct.ZXing::PointT.0", ptr %11, i32 0, i32 1
  %13 = load double, ptr %12, align 8
  %14 = load double, ptr %5, align 8
  %15 = fdiv double %13, %14
  call void @_ZN5ZXing6PointTIdEC2Edd(ptr noundef nonnull align 8 dereferenceable(16) %3, double noundef %10, double noundef %15)
  %16 = load { double, double }, ptr %3, align 8
  ret { double, double } %16
}

; Function Attrs: mustprogress uwtable
define linkonce_odr noundef double @_ZN5ZXing6lengthIdEEDTclsr3stdE4sqrtcl3dotfp_fp_EEENS_6PointTIT_EE(double %0, double %1) #0 comdat {
  %3 = alloca %"struct.ZXing::PointT.0", align 8
  %4 = getelementptr inbounds { double, double }, ptr %3, i32 0, i32 0
  store double %0, ptr %4, align 8
  %5 = getelementptr inbounds { double, double }, ptr %3, i32 0, i32 1
  store double %1, ptr %5, align 8
  %6 = call noundef double @_ZN5ZXing3dotIddEEDTmldtfp_1xdtfp0_1xERKNS_6PointTIT_EERKNS2_IT0_EE(ptr noundef nonnull align 8 dereferenceable(16) %3, ptr noundef nonnull align 8 dereferenceable(16) %3)
  %7 = call double @sqrt(double noundef %6) #14
  ret double %7
}

; Function Attrs: mustprogress nounwind uwtable
define linkonce_odr void @_ZN5ZXing6PointTIdEC2Edd(ptr noundef nonnull align 8 dereferenceable(16) %0, double noundef %1, double noundef %2) unnamed_addr #1 comdat align 2 {
  %4 = alloca ptr, align 8
  %5 = alloca double, align 8
  %6 = alloca double, align 8
  store ptr %0, ptr %4, align 8
  store double %1, ptr %5, align 8
  store double %2, ptr %6, align 8
  %7 = load ptr, ptr %4, align 8
  %8 = getelementptr inbounds %"struct.ZXing::PointT.0", ptr %7, i32 0, i32 0
  %9 = load double, ptr %5, align 8
  store double %9, ptr %8, align 8
  %10 = getelementptr inbounds %"struct.ZXing::PointT.0", ptr %7, i32 0, i32 1
  %11 = load double, ptr %6, align 8
  store double %11, ptr %10, align 8
  ret void
}

; Function Attrs: mustprogress uwtable
define linkonce_odr { double, double } @_ZN5ZXingmlIdfEENS_6PointTIT_EET0_RKS3_(float noundef %0, ptr noundef nonnull align 8 dereferenceable(16) %1) #0 comdat {
  %3 = alloca %"struct.ZXing::PointT.0", align 8
  %4 = alloca float, align 4
  %5 = alloca ptr, align 8
  store float %0, ptr %4, align 4
  store ptr %1, ptr %5, align 8
  %6 = load float, ptr %4, align 4
  %7 = fpext float %6 to double
  %8 = load ptr, ptr %5, align 8
  %9 = getelementptr inbounds %"struct.ZXing::PointT.0", ptr %8, i32 0, i32 0
  %10 = load double, ptr %9, align 8
  %11 = fmul double %7, %10
  %12 = load float, ptr %4, align 4
  %13 = fpext float %12 to double
  %14 = load ptr, ptr %5, align 8
  %15 = getelementptr inbounds %"struct.ZXing::PointT.0", ptr %14, i32 0, i32 1
  %16 = load double, ptr %15, align 8
  %17 = fmul double %13, %16
  call void @_ZN5ZXing6PointTIdEC2Edd(ptr noundef nonnull align 8 dereferenceable(16) %3, double noundef %11, double noundef %17)
  %18 = load { double, double }, ptr %3, align 8
  ret { double, double } %18
}

; Function Attrs: mustprogress uwtable
define linkonce_odr { double, double } @_ZN5ZXingplIddEENS_6PointTIDTpldtfp_1xdtfp0_1xEEERKNS1_IT_EERKNS1_IT0_EE(ptr noundef nonnull align 8 dereferenceable(16) %0, ptr noundef nonnull align 8 dereferenceable(16) %1) #0 comdat {
  %3 = alloca %"struct.ZXing::PointT.0", align 8
  %4 = alloca ptr, align 8
  %5 = alloca ptr, align 8
  store ptr %0, ptr %4, align 8
  store ptr %1, ptr %5, align 8
  %6 = load ptr, ptr %4, align 8
  %7 = getelementptr inbounds %"struct.ZXing::PointT.0", ptr %6, i32 0, i32 0
  %8 = load double, ptr %7, align 8
  %9 = load ptr, ptr %5, align 8
  %10 = getelementptr inbounds %"struct.ZXing::PointT.0", ptr %9, i32 0, i32 0
  %11 = load double, ptr %10, align 8
  %12 = fadd double %8, %11
  %13 = load ptr, ptr %4, align 8
  %14 = getelementptr inbounds %"struct.ZXing::PointT.0", ptr %13, i32 0, i32 1
  %15 = load double, ptr %14, align 8
  %16 = load ptr, ptr %5, align 8
  %17 = getelementptr inbounds %"struct.ZXing::PointT.0", ptr %16, i32 0, i32 1
  %18 = load double, ptr %17, align 8
  %19 = fadd double %15, %18
  call void @_ZN5ZXing6PointTIdEC2Edd(ptr noundef nonnull align 8 dereferenceable(16) %3, double noundef %12, double noundef %19)
  %20 = load { double, double }, ptr %3, align 8
  ret { double, double } %20
}

; Function Attrs: mustprogress uwtable
define linkonce_odr { double, double } @_ZN5ZXing10normalizedIdEENS_6PointTIdEENS1_IT_EE(double %0, double %1) #0 comdat {
  %3 = alloca %"struct.ZXing::PointT.0", align 8
  %4 = alloca %"struct.ZXing::PointT.0", align 8
  %5 = alloca %"struct.ZXing::PointT.0", align 8
  %6 = alloca %"struct.ZXing::PointT.0", align 8
  %7 = getelementptr inbounds { double, double }, ptr %4, i32 0, i32 0
  store double %0, ptr %7, align 8
  %8 = getelementptr inbounds { double, double }, ptr %4, i32 0, i32 1
  store double %1, ptr %8, align 8
  call void @llvm.memcpy.p0.p0.i64(ptr align 8 %5, ptr align 8 %4, i64 16, i1 false)
  call void @llvm.memcpy.p0.p0.i64(ptr align 8 %6, ptr align 8 %4, i64 16, i1 false)
  %9 = getelementptr inbounds { double, double }, ptr %6, i32 0, i32 0
  %10 = load double, ptr %9, align 8
  %11 = getelementptr inbounds { double, double }, ptr %6, i32 0, i32 1
  %12 = load double, ptr %11, align 8
  %13 = call noundef double @_ZN5ZXing6lengthIdEEDTclsr3stdE4sqrtcl3dotfp_fp_EEENS_6PointTIT_EE(double %10, double %12)
  %14 = call { double, double } @_ZN5ZXingdvIddEENS_6PointTIT_EERKS3_T0_(ptr noundef nonnull align 8 dereferenceable(16) %5, double noundef %13)
  %15 = getelementptr inbounds { double, double }, ptr %3, i32 0, i32 0
  %16 = extractvalue { double, double } %14, 0
  store double %16, ptr %15, align 8
  %17 = getelementptr inbounds { double, double }, ptr %3, i32 0, i32 1
  %18 = extractvalue { double, double } %14, 1
  store double %18, ptr %17, align 8
  %19 = load { double, double }, ptr %3, align 8
  ret { double, double } %19
}

; Function Attrs: mustprogress uwtable
define linkonce_odr { double, double } @_ZN5ZXingmiIddEENS_6PointTIDTmidtfp_1xdtfp0_1xEEERKNS1_IT_EERKNS1_IT0_EE(ptr noundef nonnull align 8 dereferenceable(16) %0, ptr noundef nonnull align 8 dereferenceable(16) %1) #0 comdat {
  %3 = alloca %"struct.ZXing::PointT.0", align 8
  %4 = alloca ptr, align 8
  %5 = alloca ptr, align 8
  store ptr %0, ptr %4, align 8
  store ptr %1, ptr %5, align 8
  %6 = load ptr, ptr %4, align 8
  %7 = getelementptr inbounds %"struct.ZXing::PointT.0", ptr %6, i32 0, i32 0
  %8 = load double, ptr %7, align 8
  %9 = load ptr, ptr %5, align 8
  %10 = getelementptr inbounds %"struct.ZXing::PointT.0", ptr %9, i32 0, i32 0
  %11 = load double, ptr %10, align 8
  %12 = fsub double %8, %11
  %13 = load ptr, ptr %4, align 8
  %14 = getelementptr inbounds %"struct.ZXing::PointT.0", ptr %13, i32 0, i32 1
  %15 = load double, ptr %14, align 8
  %16 = load ptr, ptr %5, align 8
  %17 = getelementptr inbounds %"struct.ZXing::PointT.0", ptr %16, i32 0, i32 1
  %18 = load double, ptr %17, align 8
  %19 = fsub double %15, %18
  call void @_ZN5ZXing6PointTIdEC2Edd(ptr noundef nonnull align 8 dereferenceable(16) %3, double noundef %12, double noundef %19)
  %20 = load { double, double }, ptr %3, align 8
  ret { double, double } %20
}

; Function Attrs: mustprogress uwtable
define internal { double, double } @"_ZZN5ZXing10DataMatrixL4ScanERNS0_10EdgeTracerERSt5arrayINS0_16DMRegressionLineELm4EEENK3$_0clIfEEDaNS_6PointTIdEESA_SA_T_"(ptr noundef nonnull align 1 dereferenceable(1) %0, double %1, double %2, double %3, double %4, double %5, double %6, float noundef %7) #0 align 2 {
  %9 = alloca %"struct.ZXing::PointT.0", align 8
  %10 = alloca %"struct.ZXing::PointT.0", align 8
  %11 = alloca %"struct.ZXing::PointT.0", align 8
  %12 = alloca %"struct.ZXing::PointT.0", align 8
  %13 = alloca ptr, align 8
  %14 = alloca float, align 4
  %15 = alloca %"struct.ZXing::PointT.0", align 8
  %16 = alloca %"struct.ZXing::PointT.0", align 8
  %17 = alloca %"struct.ZXing::PointT.0", align 8
  %18 = alloca %"struct.ZXing::PointT.0", align 8
  %19 = alloca %"struct.ZXing::PointT.0", align 8
  %20 = alloca %"struct.ZXing::PointT.0", align 8
  %21 = alloca %"struct.ZXing::PointT.0", align 8
  %22 = getelementptr inbounds { double, double }, ptr %10, i32 0, i32 0
  store double %1, ptr %22, align 8
  %23 = getelementptr inbounds { double, double }, ptr %10, i32 0, i32 1
  store double %2, ptr %23, align 8
  %24 = getelementptr inbounds { double, double }, ptr %11, i32 0, i32 0
  store double %3, ptr %24, align 8
  %25 = getelementptr inbounds { double, double }, ptr %11, i32 0, i32 1
  store double %4, ptr %25, align 8
  %26 = getelementptr inbounds { double, double }, ptr %12, i32 0, i32 0
  store double %5, ptr %26, align 8
  %27 = getelementptr inbounds { double, double }, ptr %12, i32 0, i32 1
  store double %6, ptr %27, align 8
  store ptr %0, ptr %13, align 8
  store float %7, ptr %14, align 4
  %28 = load float, ptr %14, align 4
  %29 = call { double, double } @_ZN5ZXingmiIddEENS_6PointTIDTmidtfp_1xdtfp0_1xEEERKNS1_IT_EERKNS1_IT0_EE(ptr noundef nonnull align 8 dereferenceable(16) %11, ptr noundef nonnull align 8 dereferenceable(16) %10)
  %30 = getelementptr inbounds { double, double }, ptr %19, i32 0, i32 0
  %31 = extractvalue { double, double } %29, 0
  store double %31, ptr %30, align 8
  %32 = getelementptr inbounds { double, double }, ptr %19, i32 0, i32 1
  %33 = extractvalue { double, double } %29, 1
  store double %33, ptr %32, align 8
  %34 = getelementptr inbounds { double, double }, ptr %19, i32 0, i32 0
  %35 = load double, ptr %34, align 8
  %36 = getelementptr inbounds { double, double }, ptr %19, i32 0, i32 1
  %37 = load double, ptr %36, align 8
  %38 = call { double, double } @_ZN5ZXing10normalizedIdEENS_6PointTIdEENS1_IT_EE(double %35, double %37)
  %39 = getelementptr inbounds { double, double }, ptr %18, i32 0, i32 0
  %40 = extractvalue { double, double } %38, 0
  store double %40, ptr %39, align 8
  %41 = getelementptr inbounds { double, double }, ptr %18, i32 0, i32 1
  %42 = extractvalue { double, double } %38, 1
  store double %42, ptr %41, align 8
  %43 = call { double, double } @_ZN5ZXingmiIddEENS_6PointTIDTmidtfp_1xdtfp0_1xEEERKNS1_IT_EERKNS1_IT0_EE(ptr noundef nonnull align 8 dereferenceable(16) %12, ptr noundef nonnull align 8 dereferenceable(16) %10)
  %44 = getelementptr inbounds { double, double }, ptr %21, i32 0, i32 0
  %45 = extractvalue { double, double } %43, 0
  store double %45, ptr %44, align 8
  %46 = getelementptr inbounds { double, double }, ptr %21, i32 0, i32 1
  %47 = extractvalue { double, double } %43, 1
  store double %47, ptr %46, align 8
  %48 = getelementptr inbounds { double, double }, ptr %21, i32 0, i32 0
  %49 = load double, ptr %48, align 8
  %50 = getelementptr inbounds { double, double }, ptr %21, i32 0, i32 1
  %51 = load double, ptr %50, align 8
  %52 = call { double, double } @_ZN5ZXing10normalizedIdEENS_6PointTIdEENS1_IT_EE(double %49, double %51)
  %53 = getelementptr inbounds { double, double }, ptr %20, i32 0, i32 0
  %54 = extractvalue { double, double } %52, 0
  store double %54, ptr %53, align 8
  %55 = getelementptr inbounds { double, double }, ptr %20, i32 0, i32 1
  %56 = extractvalue { double, double } %52, 1
  store double %56, ptr %55, align 8
  %57 = call { double, double } @_ZN5ZXingplIddEENS_6PointTIDTpldtfp_1xdtfp0_1xEEERKNS1_IT_EERKNS1_IT0_EE(ptr noundef nonnull align 8 dereferenceable(16) %18, ptr noundef nonnull align 8 dereferenceable(16) %20)
  %58 = getelementptr inbounds { double, double }, ptr %17, i32 0, i32 0
  %59 = extractvalue { double, double } %57, 0
  store double %59, ptr %58, align 8
  %60 = getelementptr inbounds { double, double }, ptr %17, i32 0, i32 1
  %61 = extractvalue { double, double } %57, 1
  store double %61, ptr %60, align 8
  %62 = getelementptr inbounds { double, double }, ptr %17, i32 0, i32 0
  %63 = load double, ptr %62, align 8
  %64 = getelementptr inbounds { double, double }, ptr %17, i32 0, i32 1
  %65 = load double, ptr %64, align 8
  %66 = call { double, double } @_ZN5ZXing10normalizedIdEENS_6PointTIdEENS1_IT_EE(double %63, double %65)
  %67 = getelementptr inbounds { double, double }, ptr %16, i32 0, i32 0
  %68 = extractvalue { double, double } %66, 0
  store double %68, ptr %67, align 8
  %69 = getelementptr inbounds { double, double }, ptr %16, i32 0, i32 1
  %70 = extractvalue { double, double } %66, 1
  store double %70, ptr %69, align 8
  %71 = call { double, double } @_ZN5ZXingmlIdfEENS_6PointTIT_EET0_RKS3_(float noundef %28, ptr noundef nonnull align 8 dereferenceable(16) %16)
  %72 = getelementptr inbounds { double, double }, ptr %15, i32 0, i32 0
  %73 = extractvalue { double, double } %71, 0
  store double %73, ptr %72, align 8
  %74 = getelementptr inbounds { double, double }, ptr %15, i32 0, i32 1
  %75 = extractvalue { double, double } %71, 1
  store double %75, ptr %74, align 8
  %76 = call { double, double } @_ZN5ZXingplIddEENS_6PointTIDTpldtfp_1xdtfp0_1xEEERKNS1_IT_EERKNS1_IT0_EE(ptr noundef nonnull align 8 dereferenceable(16) %10, ptr noundef nonnull align 8 dereferenceable(16) %15)
  %77 = getelementptr inbounds { double, double }, ptr %9, i32 0, i32 0
  %78 = extractvalue { double, double } %76, 0
  store double %78, ptr %77, align 8
  %79 = getelementptr inbounds { double, double }, ptr %9, i32 0, i32 1
  %80 = extractvalue { double, double } %76, 1
  store double %80, ptr %79, align 8
  %81 = load { double, double }, ptr %9, align 8
  ret { double, double } %81
}