; Function Attrs: mustprogress nofree norecurse nosync nounwind willreturn memory(none) uwtable
define internal fastcc { double, double } @"_ZZN5ZXing10DataMatrixL4ScanERNS0_10EdgeTracerERSt5arrayINS0_16DMRegressionLineELm4EEENK3$_0clIfEEDaNS_6PointTIdEESA_SA_T_"(double %0, double %1, double %2, double %3, double %4, double %5, float noundef %6) unnamed_addr #9 align 2 {
  %8 = insertelement <2 x double> poison, double %2, i64 0
  %9 = insertelement <2 x double> %8, double %5, i64 1
  %10 = insertelement <2 x double> poison, double %0, i64 0
  %11 = insertelement <2 x double> %10, double %1, i64 1
  %12 = fsub <2 x double> %9, %11
  %13 = insertelement <2 x double> poison, double %4, i64 0
  %14 = insertelement <2 x double> %13, double %3, i64 1
  %15 = fsub <2 x double> %14, %11
  %16 = fpext float %6 to double
  %17 = shufflevector <2 x double> %12, <2 x double> %15, <2 x i32> <i32 1, i32 3>
  %18 = fmul <2 x double> %17, %17
  %19 = shufflevector <2 x double> %15, <2 x double> %12, <2 x i32> <i32 0, i32 2>
  %20 = tail call <2 x double> @llvm.fmuladd.v2f64(<2 x double> %19, <2 x double> %19, <2 x double> %18)
  %21 = tail call <2 x double> @llvm.sqrt.v2f64(<2 x double> %20)
  %22 = fdiv <2 x double> %15, %21
  %23 = shufflevector <2 x double> %21, <2 x double> poison, <2 x i32> <i32 1, i32 0>
  %24 = fdiv <2 x double> %12, %23
  %25 = fadd <2 x double> %22, %24
  %26 = fmul <2 x double> %25, %25
  %27 = extractelement <2 x double> %26, i64 1
  %28 = extractelement <2 x double> %25, i64 0
  %29 = tail call noundef double @llvm.fmuladd.f64(double %28, double %28, double %27)
  %sqrt.i.i14 = tail call noundef double @llvm.sqrt.f64(double %29)
  %30 = insertelement <2 x double> poison, double %sqrt.i.i14, i64 0
  %31 = shufflevector <2 x double> %30, <2 x double> poison, <2 x i32> zeroinitializer
  %32 = fdiv <2 x double> %25, %31
  %33 = insertelement <2 x double> poison, double %16, i64 0
  %34 = shufflevector <2 x double> %33, <2 x double> poison, <2 x i32> zeroinitializer
  %35 = fmul <2 x double> %32, %34
  %36 = fadd <2 x double> %35, %11
  %37 = extractelement <2 x double> %36, i64 0
  %.fca.0.insert.i19 = insertvalue { double, double } poison, double %37, 0
  %38 = extractelement <2 x double> %36, i64 1
  %.fca.1.insert.i20 = insertvalue { double, double } %.fca.0.insert.i19, double %38, 1
  ret { double, double } %.fca.1.insert.i20
}